target datalayout = "e-m:e-p270:32:32-p271:32:32-p272:64:64-i64:64-i128:128-f80:128-n8:16:32:64-S128"
target triple = "x86_64-pc-linux-gnu"

%struct.ident_t = type { i32, i32, i32, i32, ptr }
%class.TreeNodeData = type <{ i32, i8, [3 x i8] }>
%class.OctNode = type { i64, ptr, ptr, %class.TreeNodeData }
%class.SortedTreeNodes = type { ptr, i32, ptr }
%class.Octree = type <{ ptr, ptr, %class.SortedTreeNodes, i32, i32, i32, [4 x i8], double, double, i32, [4 x i8] }>

@1 = private unnamed_addr constant %struct.ident_t { i32 0, i32 514, i32 0, i32 22, ptr @0 }, align 8

; Function Attrs: mustprogress nounwind uwtable
define linkonce_odr noundef zeroext i1 @_ZNK12TreeNodeData12getGhostFlagEv(ptr noundef nonnull align 4 dereferenceable(5) %0) #4 comdat align 2 {
  %2 = alloca ptr, align 8
  store ptr %0, ptr %2, align 8
  %3 = load ptr, ptr %2, align 8
  %4 = getelementptr inbounds %class.TreeNodeData, ptr %3, i32 0, i32 1
  %5 = load i8, ptr %4, align 4
  %6 = sext i8 %5 to i32
  %7 = and i32 %6, 128
  %8 = icmp ne i32 %7, 0
  ret i1 %8
}

; Function Attrs: mustprogress uwtable
define linkonce_odr noundef zeroext i1 @_Z12GetGhostFlagPK7OctNodeI12TreeNodeDataE(ptr noundef %0) #5 comdat {
  %2 = alloca ptr, align 8
  store ptr %0, ptr %2, align 8
  %3 = load ptr, ptr %2, align 8
  %4 = icmp eq ptr %3, null
  br i1 %4, label %16, label %5

5:                                                ; preds = %1
  %6 = load ptr, ptr %2, align 8
  %7 = getelementptr inbounds %class.OctNode, ptr %6, i32 0, i32 1
  %8 = load ptr, ptr %7, align 8
  %9 = icmp eq ptr %8, null
  br i1 %9, label %16, label %10

10:                                               ; preds = %5
  %11 = load ptr, ptr %2, align 8
  %12 = getelementptr inbounds %class.OctNode, ptr %11, i32 0, i32 1
  %13 = load ptr, ptr %12, align 8
  %14 = getelementptr inbounds %class.OctNode, ptr %13, i32 0, i32 3
  %15 = call noundef zeroext i1 @_ZNK12TreeNodeData12getGhostFlagEv(ptr noundef nonnull align 4 dereferenceable(5) %14)
  br label %16

16:                                               ; preds = %10, %5, %1
  %17 = phi i1 [ true, %5 ], [ true, %1 ], [ %15, %10 ]
  ret i1 %17
}

; Function Attrs: noreturn nounwind uwtable
define linkonce_odr hidden void @__clang_call_terminate(ptr noundef %0) #9 comdat {
  %2 = call ptr @__cxa_begin_catch(ptr %0) #3
  call void @_ZSt9terminatev() #27
  unreachable
}

; Function Attrs: mustprogress nounwind uwtable
define linkonce_odr void @_ZNK7OctNodeI12TreeNodeDataE14depthAndOffsetERiPi(ptr noundef nonnull align 8 dereferenceable(32) %0, ptr noundef nonnull align 4 dereferenceable(4) %1, ptr noundef %2) #4 comdat align 2 {
  %4 = alloca ptr, align 8
  %5 = alloca ptr, align 8
  %6 = alloca ptr, align 8
  store ptr %0, ptr %4, align 8
  store ptr %1, ptr %5, align 8
  store ptr %2, ptr %6, align 8
  %7 = load ptr, ptr %4, align 8
  %8 = getelementptr inbounds %class.OctNode, ptr %7, i32 0, i32 0
  %9 = load i64, ptr %8, align 8
  %10 = and i64 %9, 31
  %11 = trunc i64 %10 to i32
  %12 = load ptr, ptr %5, align 8
  store i32 %11, ptr %12, align 4
  %13 = getelementptr inbounds %class.OctNode, ptr %7, i32 0, i32 0
  %14 = load i64, ptr %13, align 8
  %15 = lshr i64 %14, 5
  %16 = and i64 %15, 524287
  %17 = trunc i64 %16 to i32
  %18 = load ptr, ptr %6, align 8
  %19 = getelementptr inbounds i32, ptr %18, i64 0
  store i32 %17, ptr %19, align 4
  %20 = getelementptr inbounds %class.OctNode, ptr %7, i32 0, i32 0
  %21 = load i64, ptr %20, align 8
  %22 = lshr i64 %21, 24
  %23 = and i64 %22, 524287
  %24 = trunc i64 %23 to i32
  %25 = load ptr, ptr %6, align 8
  %26 = getelementptr inbounds i32, ptr %25, i64 1
  store i32 %24, ptr %26, align 4
  %27 = getelementptr inbounds %class.OctNode, ptr %7, i32 0, i32 0
  %28 = load i64, ptr %27, align 8
  %29 = lshr i64 %28, 43
  %30 = and i64 %29, 524287
  %31 = trunc i64 %30 to i32
  %32 = load ptr, ptr %6, align 8
  %33 = getelementptr inbounds i32, ptr %32, i64 2
  store i32 %31, ptr %33, align 4
  ret void
}

; Function Attrs: mustprogress uwtable
define linkonce_odr noundef zeroext i1 @_ZNK6OctreeIfE15_isValidFEMNodeEPK7OctNodeI12TreeNodeDataE(ptr noundef nonnull align 8 dereferenceable(76) %0, ptr noundef %1) #5 comdat align 2 {
  %3 = alloca ptr, align 8
  %4 = alloca ptr, align 8
  store ptr %0, ptr %3, align 8
  store ptr %1, ptr %4, align 8
  %5 = load ptr, ptr %4, align 8
  %6 = call noundef zeroext i1 @_Z12GetGhostFlagPK7OctNodeI12TreeNodeDataE(ptr noundef %5)
  br i1 %6, label %15, label %7

7:                                                ; preds = %2
  %8 = load ptr, ptr %4, align 8
  %9 = getelementptr inbounds %class.OctNode, ptr %8, i32 0, i32 3
  %10 = getelementptr inbounds %class.TreeNodeData, ptr %9, i32 0, i32 1
  %11 = load i8, ptr %10, align 4
  %12 = sext i8 %11 to i32
  %13 = and i32 %12, 2
  %14 = icmp ne i32 %13, 0
  br label %15

15:                                               ; preds = %7, %2
  %16 = phi i1 [ false, %2 ], [ %14, %7 ]
  ret i1 %16
}

; Function Attrs: norecurse nounwind uwtable
define internal void @_ZNK6OctreeIfE21_setMultiColorIndicesILi2EEEviiRSt6vectorIS2_IiSaIiEESaIS4_EE.omp_outlined(ptr noalias noundef %0, ptr noalias noundef %1, ptr noundef nonnull align 4 dereferenceable(4) %2, ptr noundef nonnull align 4 dereferenceable(4) %3, ptr noundef %4, ptr noundef nonnull align 4 dereferenceable(108) %5) #17 personality ptr @__gxx_personality_v0 {
  %7 = alloca ptr, align 8
  %8 = alloca ptr, align 8
  %9 = alloca ptr, align 8
  %10 = alloca ptr, align 8
  %11 = alloca ptr, align 8
  %12 = alloca ptr, align 8
  %13 = alloca i32, align 4
  %14 = alloca i32, align 4
  %15 = alloca i32, align 4
  %16 = alloca i32, align 4
  %17 = alloca i32, align 4
  %18 = alloca i32, align 4
  %19 = alloca i32, align 4
  %20 = alloca i32, align 4
  %21 = alloca i32, align 4
  %22 = alloca i32, align 4
  %23 = alloca i32, align 4
  %24 = alloca [3 x i32], align 4
  %25 = alloca i32, align 4
  store ptr %0, ptr %7, align 8
  store ptr %1, ptr %8, align 8
  store ptr %2, ptr %9, align 8
  store ptr %3, ptr %10, align 8
  store ptr %4, ptr %11, align 8
  store ptr %5, ptr %12, align 8
  %26 = load ptr, ptr %9, align 8
  %27 = load ptr, ptr %10, align 8
  %28 = load ptr, ptr %11, align 8
  %29 = load ptr, ptr %12, align 8
  %30 = load i32, ptr %26, align 4
  store i32 %30, ptr %14, align 4
  %31 = load i32, ptr %27, align 4
  store i32 %31, ptr %15, align 4
  %32 = load i32, ptr %15, align 4
  %33 = load i32, ptr %14, align 4
  %34 = sub i32 %32, %33
  %35 = sub i32 %34, 1
  %36 = add i32 %35, 1
  %37 = udiv i32 %36, 1
  %38 = sub i32 %37, 1
  store i32 %38, ptr %16, align 4
  %39 = load i32, ptr %14, align 4
  store i32 %39, ptr %17, align 4
  %40 = load i32, ptr %14, align 4
  %41 = load i32, ptr %15, align 4
  %42 = icmp slt i32 %40, %41
  br i1 %42, label %43, label %111

43:                                               ; preds = %6
  store i32 0, ptr %18, align 4
  %44 = load i32, ptr %16, align 4
  store i32 %44, ptr %19, align 4
  store i32 1, ptr %20, align 4
  store i32 0, ptr %21, align 4
  %45 = load ptr, ptr %7, align 8
  %46 = load i32, ptr %45, align 4
  call void @__kmpc_for_static_init_4u(ptr @1, i32 %46, i32 34, ptr %21, ptr %18, ptr %19, ptr %20, i32 1, i32 1)
  %47 = load i32, ptr %19, align 4
  %48 = load i32, ptr %16, align 4
  %49 = icmp ugt i32 %47, %48
  br i1 %49, label %50, label %52

50:                                               ; preds = %43
  %51 = load i32, ptr %16, align 4
  br label %54

52:                                               ; preds = %43
  %53 = load i32, ptr %19, align 4
  br label %54

54:                                               ; preds = %52, %50
  %55 = phi i32 [ %51, %50 ], [ %53, %52 ]
  store i32 %55, ptr %19, align 4
  %56 = load i32, ptr %18, align 4
  store i32 %56, ptr %13, align 4
  br label %57

57:                                               ; preds = %104, %54
  %58 = load i32, ptr %13, align 4
  %59 = load i32, ptr %19, align 4
  %60 = add i32 %59, 1
  %61 = icmp ult i32 %58, %60
  br i1 %61, label %62, label %107

62:                                               ; preds = %57
  %63 = load i32, ptr %14, align 4
  %64 = load i32, ptr %13, align 4
  %65 = mul i32 %64, 1
  %66 = add i32 %63, %65
  store i32 %66, ptr %22, align 4
  %67 = getelementptr inbounds %class.Octree, ptr %28, i32 0, i32 2
  %68 = getelementptr inbounds %class.SortedTreeNodes, ptr %67, i32 0, i32 2
  %69 = load ptr, ptr %68, align 8
  %70 = load i32, ptr %22, align 4
  %71 = sext i32 %70 to i64
  %72 = getelementptr inbounds ptr, ptr %69, i64 %71
  %73 = load ptr, ptr %72, align 8
  %74 = invoke noundef zeroext i1 @_ZNK6OctreeIfE15_isValidFEMNodeEPK7OctNodeI12TreeNodeDataE(ptr noundef nonnull align 8 dereferenceable(76) %28, ptr noundef %73)
          to label %75 unwind label %112

75:                                               ; preds = %62
  br i1 %74, label %76, label %102

76:                                               ; preds = %75
  %77 = getelementptr inbounds %class.Octree, ptr %28, i32 0, i32 2
  %78 = getelementptr inbounds %class.SortedTreeNodes, ptr %77, i32 0, i32 2
  %79 = load ptr, ptr %78, align 8
  %80 = load i32, ptr %22, align 4
  %81 = sext i32 %80 to i64
  %82 = getelementptr inbounds ptr, ptr %79, i64 %81
  %83 = load ptr, ptr %82, align 8
  %84 = getelementptr inbounds [3 x i32], ptr %24, i64 0, i64 0
  call void @_ZNK7OctNodeI12TreeNodeDataE14depthAndOffsetERiPi(ptr noundef nonnull align 8 dereferenceable(32) %83, ptr noundef nonnull align 4 dereferenceable(4) %23, ptr noundef %84)
  %85 = getelementptr inbounds [3 x i32], ptr %24, i64 0, i64 2
  %86 = load i32, ptr %85, align 4
  %87 = srem i32 %86, 3
  %88 = mul nsw i32 9, %87
  %89 = getelementptr inbounds [3 x i32], ptr %24, i64 0, i64 1
  %90 = load i32, ptr %89, align 4
  %91 = srem i32 %90, 3
  %92 = mul nsw i32 3, %91
  %93 = add nsw i32 %88, %92
  %94 = getelementptr inbounds [3 x i32], ptr %24, i64 0, i64 0
  %95 = load i32, ptr %94, align 4
  %96 = srem i32 %95, 3
  %97 = add nsw i32 %93, %96
  store i32 %97, ptr %25, align 4
  %98 = load i32, ptr %25, align 4
  %99 = sext i32 %98 to i64
  %100 = getelementptr inbounds [27 x i32], ptr %29, i64 0, i64 %99
  %101 = atomicrmw add ptr %100, i32 1 monotonic, align 4
  br label %102

102:                                              ; preds = %76, %75
  br label %103

103:                                              ; preds = %102
  br label %104

104:                                              ; preds = %103
  %105 = load i32, ptr %13, align 4
  %106 = add i32 %105, 1
  store i32 %106, ptr %13, align 4
  br label %57

107:                                              ; preds = %57
  br label %108

108:                                              ; preds = %107
  %109 = load ptr, ptr %7, align 8
  %110 = load i32, ptr %109, align 4
  call void @__kmpc_for_static_fini(ptr @1, i32 %110)
  br label %111

111:                                              ; preds = %108, %6
  ret void

112:                                              ; preds = %62
  %113 = landingpad { ptr, i32 }
          catch ptr null
  %114 = extractvalue { ptr, i32 } %113, 0
  call void @__clang_call_terminate(ptr %114) #27
  unreachable
}