; Function Attrs: norecurse nounwind uwtable
define internal void @_ZNK6OctreeIfE21_setMultiColorIndicesILi2EEEviiRSt6vectorIS2_IiSaIiEESaIS4_EE.omp_outlined(ptr noalias nocapture noundef readonly %0, ptr noalias nocapture readnone %1, ptr nocapture noundef nonnull readonly align 4 dereferenceable(4) %2, ptr nocapture noundef nonnull readonly align 4 dereferenceable(4) %3, ptr nocapture noundef readonly %4, ptr nocapture noundef nonnull align 4 dereferenceable(108) %5) #23 personality ptr @__gxx_personality_v0 {
  %7 = alloca i32, align 4
  %8 = alloca i32, align 4
  %9 = alloca i32, align 4
  %10 = alloca i32, align 4
  %11 = load i32, ptr %2, align 4
  %12 = load i32, ptr %3, align 4
  %13 = icmp slt i32 %11, %12
  br i1 %13, label %14, label %63

14:                                               ; preds = %6
  %15 = xor i32 %11, -1
  %16 = add i32 %12, %15
  store i32 0, ptr %7, align 4
  store i32 %16, ptr %8, align 4
  store i32 1, ptr %9, align 4
  store i32 0, ptr %10, align 4
  %17 = load i32, ptr %0, align 4
  call void @__kmpc_for_static_init_4u(ptr nonnull @1, i32 %17, i32 34, ptr nonnull %10, ptr nonnull %7, ptr nonnull %8, ptr nonnull %9, i32 1, i32 1)
  %18 = load i32, ptr %8, align 4
  %19 = call i32 @llvm.umin.i32(i32 %18, i32 %16)
  store i32 %19, ptr %8, align 4
  %20 = load i32, ptr %7, align 4
  %21 = add i32 %19, 1
  %22 = icmp ult i32 %20, %21
  br i1 %22, label %.lr.ph, label %._crit_edge

.lr.ph:                                           ; preds = %14
  %23 = getelementptr inbounds i8, ptr %4, i64 32
  br label %24

24:                                               ; preds = %.lr.ph, %_ZNK6OctreeIfE15_isValidFEMNodeEPK7OctNodeI12TreeNodeDataE.exit.thread
  %.021 = phi i32 [ %20, %.lr.ph ], [ %62, %_ZNK6OctreeIfE15_isValidFEMNodeEPK7OctNodeI12TreeNodeDataE.exit.thread ]
  %25 = add i32 %.021, %11
  %26 = load ptr, ptr %23, align 8
  %27 = sext i32 %25 to i64
  %28 = getelementptr inbounds ptr, ptr %26, i64 %27
  %29 = load ptr, ptr %28, align 8
  %30 = icmp eq ptr %29, null
  br i1 %30, label %_ZNK6OctreeIfE15_isValidFEMNodeEPK7OctNodeI12TreeNodeDataE.exit.thread, label %31

31:                                               ; preds = %24
  %32 = getelementptr inbounds i8, ptr %29, i64 8
  %33 = load ptr, ptr %32, align 8
  %34 = icmp eq ptr %33, null
  br i1 %34, label %_ZNK6OctreeIfE15_isValidFEMNodeEPK7OctNodeI12TreeNodeDataE.exit.thread, label %_Z12GetGhostFlagPK7OctNodeI12TreeNodeDataE.exit.i

_Z12GetGhostFlagPK7OctNodeI12TreeNodeDataE.exit.i: ; preds = %31
  %35 = getelementptr inbounds i8, ptr %33, i64 28
  %36 = load i8, ptr %35, align 4
  %37 = icmp slt i8 %36, 0
  br i1 %37, label %_ZNK6OctreeIfE15_isValidFEMNodeEPK7OctNodeI12TreeNodeDataE.exit.thread, label %_ZNK6OctreeIfE15_isValidFEMNodeEPK7OctNodeI12TreeNodeDataE.exit

_ZNK6OctreeIfE15_isValidFEMNodeEPK7OctNodeI12TreeNodeDataE.exit: ; preds = %_Z12GetGhostFlagPK7OctNodeI12TreeNodeDataE.exit.i
  %38 = getelementptr inbounds i8, ptr %29, i64 28
  %39 = load i8, ptr %38, align 4
  %40 = and i8 %39, 2
  %.not = icmp eq i8 %40, 0
  br i1 %.not, label %_ZNK6OctreeIfE15_isValidFEMNodeEPK7OctNodeI12TreeNodeDataE.exit.thread, label %41

41:                                               ; preds = %_ZNK6OctreeIfE15_isValidFEMNodeEPK7OctNodeI12TreeNodeDataE.exit
  %42 = load i64, ptr %29, align 8
  %43 = trunc i64 %42 to i32
  %44 = lshr i32 %43, 5
  %45 = and i32 %44, 524287
  %46 = lshr i64 %42, 24
  %47 = trunc i64 %46 to i32
  %48 = and i32 %47, 524287
  %49 = lshr i64 %42, 43
  %50 = trunc i64 %49 to i32
  %51 = and i32 %50, 524287
  %52 = urem i32 %51, 3
  %53 = mul nuw nsw i32 %52, 9
  %54 = urem i32 %48, 3
  %55 = mul nuw nsw i32 %54, 3
  %56 = urem i32 %45, 3
  %57 = add nuw nsw i32 %55, %56
  %58 = add nuw nsw i32 %57, %53
  %59 = zext nneg i32 %58 to i64
  %60 = getelementptr inbounds [27 x i32], ptr %5, i64 0, i64 %59
  %61 = atomicrmw add ptr %60, i32 1 monotonic, align 4
  br label %_ZNK6OctreeIfE15_isValidFEMNodeEPK7OctNodeI12TreeNodeDataE.exit.thread

_ZNK6OctreeIfE15_isValidFEMNodeEPK7OctNodeI12TreeNodeDataE.exit.thread: ; preds = %24, %31, %_Z12GetGhostFlagPK7OctNodeI12TreeNodeDataE.exit.i, %41, %_ZNK6OctreeIfE15_isValidFEMNodeEPK7OctNodeI12TreeNodeDataE.exit
  %62 = add nuw i32 %.021, 1
  %exitcond.not = icmp eq i32 %.021, %19
  br i1 %exitcond.not, label %._crit_edge, label %24

._crit_edge:                                      ; preds = %_ZNK6OctreeIfE15_isValidFEMNodeEPK7OctNodeI12TreeNodeDataE.exit.thread, %14
  call void @__kmpc_for_static_fini(ptr nonnull @1, i32 %17)
  br label %63

63:                                               ; preds = %._crit_edge, %6
  ret void
}